; Function Attrs: nounwind uwtable
define void @Gia_ManPrintCollect2_rec(ptr noundef %0, ptr noundef %1, ptr noundef %2) local_unnamed_addr #2 {
  %4 = getelementptr i8, ptr %0, i64 32
  %.val26 = load ptr, ptr %4, align 8
  %5 = ptrtoint ptr %1 to i64
  %6 = ptrtoint ptr %.val26 to i64
  %7 = sub i64 %5, %6
  %8 = sdiv exact i64 %7, 12
  %9 = trunc i64 %8 to i32
  %10 = getelementptr inbounds nuw i8, ptr %2, i64 4
  %11 = load i32, ptr %10, align 4
  %12 = icmp sgt i32 %11, 0
  br i1 %12, label %.lr.ph.i, label %Vec_IntFind.exit.thread

.lr.ph.i:                                         ; preds = %3
  %13 = getelementptr inbounds nuw i8, ptr %2, i64 8
  %14 = load ptr, ptr %13, align 8
  %wide.trip.count.i = zext nneg i32 %11 to i64
  br label %15

15:                                               ; preds = %19, %.lr.ph.i
  %indvars.iv.i = phi i64 [ 0, %.lr.ph.i ], [ %indvars.iv.next.i, %19 ]
  %16 = getelementptr inbounds nuw i32, ptr %14, i64 %indvars.iv.i
  %17 = load i32, ptr %16, align 4
  %18 = icmp eq i32 %17, %9
  br i1 %18, label %Vec_IntFind.exit, label %19

19:                                               ; preds = %15
  %indvars.iv.next.i = add nuw nsw i64 %indvars.iv.i, 1
  %exitcond.not.i = icmp eq i64 %indvars.iv.next.i, %wide.trip.count.i
  br i1 %exitcond.not.i, label %Vec_IntFind.exit.thread, label %15, !llvm.loop !55

Vec_IntFind.exit.thread:                          ; preds = %19, %3
  %.val29 = load i64, ptr %1, align 4
  %20 = and i64 %.val29, 536870911
  %.not38 = icmp eq i64 %20, 536870911
  br i1 %.not38, label %.thread, label %21

21:                                               ; preds = %Vec_IntFind.exit.thread
  %22 = sub nsw i64 0, %20
  %23 = getelementptr inbounds %struct.Gia_Obj_t_, ptr %1, i64 %22
  tail call void @Gia_ManPrintCollect2_rec(ptr noundef %0, ptr noundef nonnull %23, ptr noundef %2)
  %.val.pre = load i64, ptr %1, align 4
  %.pre = and i64 %.val.pre, 536870911
  %24 = icmp eq i64 %.pre, 536870911
  %25 = and i64 %.val.pre, 2147483648
  %.not.i32 = icmp ne i64 %25, 0
  %narrow.i33.not = or i1 %.not.i32, %24
  br i1 %narrow.i33.not, label %.thread, label %26

26:                                               ; preds = %21
  %27 = lshr i64 %.val.pre, 32
  %28 = and i64 %27, 536870911
  %29 = sub nsw i64 0, %28
  %30 = getelementptr inbounds %struct.Gia_Obj_t_, ptr %1, i64 %29
  tail call void @Gia_ManPrintCollect2_rec(ptr noundef %0, ptr noundef nonnull %30, ptr noundef %2)
  br label %.thread

.thread:                                          ; preds = %Vec_IntFind.exit.thread, %26, %21
  %.val27 = load ptr, ptr %4, align 8
  %31 = getelementptr i8, ptr %0, i64 40
  %.val28 = load ptr, ptr %31, align 8
  %.not.i.i = icmp eq ptr %.val28, null
  br i1 %.not.i.i, label %Gia_ObjIsMux.exit.thread, label %Gia_ObjIsMux.exit

Gia_ObjIsMux.exit:                                ; preds = %.thread
  %32 = ptrtoint ptr %.val27 to i64
  %33 = sub i64 %5, %32
  %34 = sdiv exact i64 %33, 12
  %sext.i = shl i64 %34, 32
  %35 = ashr exact i64 %sext.i, 30
  %36 = getelementptr inbounds i8, ptr %.val28, i64 %35
  %37 = load i32, ptr %36, align 4
  %.not = icmp eq i32 %37, 0
  br i1 %.not, label %Gia_ObjIsMux.exit.thread, label %Gia_ObjFanin2.exit

Gia_ObjFanin2.exit:                               ; preds = %Gia_ObjIsMux.exit
  %38 = ashr i32 %37, 1
  %39 = sext i32 %38 to i64
  %40 = getelementptr inbounds %struct.Gia_Obj_t_, ptr %.val27, i64 %39
  tail call void @Gia_ManPrintCollect2_rec(ptr noundef nonnull %0, ptr noundef %40, ptr noundef %2)
  %.val25.pre = load ptr, ptr %4, align 8
  br label %Gia_ObjIsMux.exit.thread

Gia_ObjIsMux.exit.thread:                         ; preds = %.thread, %Gia_ObjFanin2.exit, %Gia_ObjIsMux.exit
  %.val25 = phi ptr [ %.val27, %.thread ], [ %.val25.pre, %Gia_ObjFanin2.exit ], [ %.val27, %Gia_ObjIsMux.exit ]
  %41 = ptrtoint ptr %.val25 to i64
  %42 = sub i64 %5, %41
  %43 = sdiv exact i64 %42, 12
  %44 = trunc i64 %43 to i32
  %45 = load i32, ptr %10, align 4
  %46 = load i32, ptr %2, align 8
  %47 = icmp eq i32 %45, %46
  br i1 %47, label %48, label %.Vec_IntGrow.exit10_crit_edge.i

.Vec_IntGrow.exit10_crit_edge.i:                  ; preds = %Gia_ObjIsMux.exit.thread
  %.phi.trans.insert.i = getelementptr inbounds nuw i8, ptr %2, i64 8
  %.pre.i = load ptr, ptr %.phi.trans.insert.i, align 8
  br label %Vec_IntPush.exit

48:                                               ; preds = %Gia_ObjIsMux.exit.thread
  %49 = icmp slt i32 %45, 16
  br i1 %49, label %50, label %58

50:                                               ; preds = %48
  %51 = getelementptr inbounds nuw i8, ptr %2, i64 8
  %52 = load ptr, ptr %51, align 8
  %.not9.i.i = icmp eq ptr %52, null
  br i1 %.not9.i.i, label %55, label %53

53:                                               ; preds = %50
  %54 = tail call dereferenceable_or_null(64) ptr @realloc(ptr noundef nonnull %52, i64 noundef 64) #39
  br label %Vec_IntGrow.exit.i

55:                                               ; preds = %50
  %56 = tail call noalias dereferenceable_or_null(64) ptr @malloc(i64 noundef 64) #40
  br label %Vec_IntGrow.exit.i

Vec_IntGrow.exit.i:                               ; preds = %55, %53
  %57 = phi ptr [ %54, %53 ], [ %56, %55 ]
  store ptr %57, ptr %51, align 8
  store i32 16, ptr %2, align 8
  br label %Vec_IntPush.exit

58:                                               ; preds = %48
  %59 = shl nuw nsw i32 %45, 1
  %60 = getelementptr inbounds nuw i8, ptr %2, i64 8
  %61 = load ptr, ptr %60, align 8
  %.not9.i9.i = icmp eq ptr %61, null
  %62 = zext nneg i32 %59 to i64
  %63 = shl nuw nsw i64 %62, 2
  br i1 %.not9.i9.i, label %66, label %64

64:                                               ; preds = %58
  %65 = tail call ptr @realloc(ptr noundef nonnull %61, i64 noundef %63) #39
  br label %68

66:                                               ; preds = %58
  %67 = tail call noalias ptr @malloc(i64 noundef %63) #40
  br label %68

68:                                               ; preds = %66, %64
  %69 = phi ptr [ %65, %64 ], [ %67, %66 ]
  store ptr %69, ptr %60, align 8
  store i32 %59, ptr %2, align 8
  br label %Vec_IntPush.exit

Vec_IntPush.exit:                                 ; preds = %.Vec_IntGrow.exit10_crit_edge.i, %Vec_IntGrow.exit.i, %68
  %70 = phi ptr [ %.pre.i, %.Vec_IntGrow.exit10_crit_edge.i ], [ %69, %68 ], [ %57, %Vec_IntGrow.exit.i ]
  %71 = load i32, ptr %10, align 4
  %72 = add nsw i32 %71, 1
  store i32 %72, ptr %10, align 4
  %73 = sext i32 %71 to i64
  %74 = getelementptr inbounds i32, ptr %70, i64 %73
  store i32 %44, ptr %74, align 4
  br label %Vec_IntFind.exit

Vec_IntFind.exit:                                 ; preds = %15, %Vec_IntPush.exit
  ret void
}